; Function Attrs: mustprogress nounwind uwtable
define internal fastcc void @_ZNSt10unique_ptrIN9grpc_core12_GLOBAL__N_117XdsOverrideHostLb17SubchannelWrapper24ConnectivityStateWatcherESt14default_deleteIS4_EED2Ev(ptr noundef nonnull align 8 captures(none) dereferenceable(8) %0) unnamed_addr #5 align 2 personality ptr @__gxx_personality_v0 {
  %2 = load ptr, ptr %0, align 8, !tbaa !468
  %.not = icmp eq ptr %2, null
  br i1 %.not, label %13, label %3

3:                                                ; preds = %1
  %4 = getelementptr inbounds nuw i8, ptr %2, i64 8
  %.val.i.i = load ptr, ptr %4, align 8, !tbaa !450
  %.not.i.i.i = icmp eq ptr %.val.i.i, null
  br i1 %.not.i.i.i, label %_ZNKSt14default_deleteIN9grpc_core12_GLOBAL__N_117XdsOverrideHostLb17SubchannelWrapper24ConnectivityStateWatcherEEclEPS4_.exit, label %5

5:                                                ; preds = %3
  %6 = getelementptr inbounds nuw i8, ptr %.val.i.i, i64 8
  %7 = atomicrmw sub ptr %6, i64 1 acq_rel, align 8
  %8 = icmp eq i64 %7, 1
  br i1 %8, label %9, label %_ZNKSt14default_deleteIN9grpc_core12_GLOBAL__N_117XdsOverrideHostLb17SubchannelWrapper24ConnectivityStateWatcherEEclEPS4_.exit, !prof !47

9:                                                ; preds = %5
  %10 = load ptr, ptr %.val.i.i, align 8, !tbaa !6
  %11 = getelementptr inbounds nuw i8, ptr %10, i64 8
  %12 = load ptr, ptr %11, align 8
  tail call void %12(ptr noundef nonnull align 8 dereferenceable(16) %.val.i.i) #40
  br label %_ZNKSt14default_deleteIN9grpc_core12_GLOBAL__N_117XdsOverrideHostLb17SubchannelWrapper24ConnectivityStateWatcherEEclEPS4_.exit

_ZNKSt14default_deleteIN9grpc_core12_GLOBAL__N_117XdsOverrideHostLb17SubchannelWrapper24ConnectivityStateWatcherEEclEPS4_.exit: ; preds = %3, %5, %9
  tail call void @_ZdlPvm(ptr noundef nonnull %2, i64 noundef 16) #43
  br label %13

13:                                               ; preds = %_ZNKSt14default_deleteIN9grpc_core12_GLOBAL__N_117XdsOverrideHostLb17SubchannelWrapper24ConnectivityStateWatcherEEclEPS4_.exit, %1
  store ptr null, ptr %0, align 8, !tbaa !468
  ret void
}